; Function Attrs: mustprogress uwtable
define hidden void @_ZN3mbp10term_graph15compute_cgroundEv(ptr noundef nonnull readonly align 8 captures(none) dereferenceable(244) %0) local_unnamed_addr #3 align 2 personality ptr @__gxx_personality_v0 {
  %2 = alloca %class.ptr_vector, align 8
  %3 = getelementptr inbounds nuw i8, ptr %0, i64 8
  %4 = load ptr, ptr %3, align 8, !tbaa !45
  %5 = icmp eq ptr %4, null
  br i1 %5, label %._crit_edge.thread, label %_ZN6vectorIPN3mbp4termELb0EjE3endEv.exit

._crit_edge.thread:                               ; preds = %1
  call void @llvm.lifetime.start.p0(i64 8, ptr nonnull %2) #27
  store ptr null, ptr %2, align 8, !tbaa !45
  br label %._crit_edge29

_ZN6vectorIPN3mbp4termELb0EjE3endEv.exit:         ; preds = %1
  %6 = getelementptr inbounds i8, ptr %4, i64 -4
  %7 = load i32, ptr %6, align 4, !tbaa !34
  %8 = zext i32 %7 to i64
  %9 = getelementptr inbounds nuw ptr, ptr %4, i64 %8
  %.not24 = icmp eq i32 %7, 0
  br i1 %.not24, label %._crit_edge.thread32, label %.lr.ph

._crit_edge.thread32:                             ; preds = %_ZN6vectorIPN3mbp4termELb0EjE3endEv.exit
  call void @llvm.lifetime.start.p0(i64 8, ptr nonnull %2) #27
  store ptr null, ptr %2, align 8, !tbaa !45
  br label %_ZN6vectorIPN3mbp4termELb0EjE3endEv.exit22

._crit_edge:                                      ; preds = %.lr.ph
  %.pre = load ptr, ptr %3, align 8, !tbaa !45
  call void @llvm.lifetime.start.p0(i64 8, ptr nonnull %2) #27
  store ptr null, ptr %2, align 8, !tbaa !45
  %10 = icmp eq ptr %.pre, null
  br i1 %10, label %._crit_edge29, label %_ZN6vectorIPN3mbp4termELb0EjE3endEv.exit22

_ZN6vectorIPN3mbp4termELb0EjE3endEv.exit22:       ; preds = %._crit_edge, %._crit_edge.thread32
  %11 = phi ptr [ %4, %._crit_edge.thread32 ], [ %.pre, %._crit_edge ]
  %12 = getelementptr inbounds i8, ptr %11, i64 -4
  %13 = load i32, ptr %12, align 4, !tbaa !34
  %14 = zext i32 %13 to i64
  %15 = getelementptr inbounds nuw ptr, ptr %11, i64 %14
  %.not1926 = icmp eq i32 %13, 0
  br i1 %.not1926, label %._crit_edge29, label %.lr.ph28

.lr.ph:                                           ; preds = %_ZN6vectorIPN3mbp4termELb0EjE3endEv.exit, %.lr.ph
  %.025 = phi ptr [ %25, %.lr.ph ], [ %4, %_ZN6vectorIPN3mbp4termELb0EjE3endEv.exit ]
  %16 = load ptr, ptr %.025, align 8, !tbaa !46
  %17 = getelementptr inbounds nuw i8, ptr %16, i64 40
  %18 = load i16, ptr %17, align 8
  %19 = and i16 %18, -513
  store i16 %19, ptr %17, align 8
  %20 = getelementptr inbounds nuw i8, ptr %16, i64 16
  %21 = load ptr, ptr %20, align 8, !tbaa !19
  %22 = getelementptr inbounds nuw i8, ptr %21, i64 64
  %23 = load i8, ptr %22, align 8
  %24 = and i8 %23, -2
  store i8 %24, ptr %22, align 8
  %25 = getelementptr inbounds nuw i8, ptr %.025, i64 8
  %.not = icmp eq ptr %25, %9
  br i1 %.not, label %._crit_edge, label %.lr.ph

._crit_edge29:                                    ; preds = %48, %._crit_edge.thread, %._crit_edge, %_ZN6vectorIPN3mbp4termELb0EjE3endEv.exit22
  invoke void @_ZN3mbp10term_graph20cground_percolate_upER10ptr_vectorINS_4termEE(ptr nonnull align 8 poison, ptr noundef nonnull align 8 dereferenceable(8) %2)
          to label %51 unwind label %58

.lr.ph28:                                         ; preds = %_ZN6vectorIPN3mbp4termELb0EjE3endEv.exit22, %48
  %26 = phi ptr [ %49, %48 ], [ null, %_ZN6vectorIPN3mbp4termELb0EjE3endEv.exit22 ]
  %.01827 = phi ptr [ %50, %48 ], [ %11, %_ZN6vectorIPN3mbp4termELb0EjE3endEv.exit22 ]
  %27 = load ptr, ptr %.01827, align 8, !tbaa !46
  %28 = getelementptr inbounds nuw i8, ptr %27, i64 40
  %29 = load i16, ptr %28, align 8
  %30 = and i16 %29, 1024
  %.not23 = icmp eq i16 %30, 0
  br i1 %.not23, label %48, label %31

31:                                               ; preds = %.lr.ph28
  %32 = icmp eq ptr %26, null
  br i1 %32, label %39, label %33

33:                                               ; preds = %31
  %34 = getelementptr inbounds i8, ptr %26, i64 -4
  %35 = load i32, ptr %34, align 4, !tbaa !34
  %36 = getelementptr inbounds i8, ptr %26, i64 -8
  %37 = load i32, ptr %36, align 4, !tbaa !34
  %38 = icmp eq i32 %35, %37
  br i1 %38, label %39, label %_ZN6vectorIPN3mbp4termELb0EjE9push_backERKS2_.exit

39:                                               ; preds = %33, %31
  invoke void @_ZN6vectorIPN3mbp4termELb0EjE13expand_vectorEv(ptr noundef nonnull align 8 dereferenceable(8) %2)
          to label %.noexc unwind label %46

.noexc:                                           ; preds = %39
  %.pre.i = load ptr, ptr %2, align 8, !tbaa !45
  %.phi.trans.insert.i = getelementptr inbounds i8, ptr %.pre.i, i64 -4
  %.pre2.i = load i32, ptr %.phi.trans.insert.i, align 4, !tbaa !34
  br label %_ZN6vectorIPN3mbp4termELb0EjE9push_backERKS2_.exit

_ZN6vectorIPN3mbp4termELb0EjE9push_backERKS2_.exit: ; preds = %33, %.noexc
  %40 = phi ptr [ %.pre.i, %.noexc ], [ %26, %33 ]
  %41 = phi i32 [ %.pre2.i, %.noexc ], [ %35, %33 ]
  %42 = getelementptr inbounds i8, ptr %40, i64 -4
  %43 = zext i32 %41 to i64
  %44 = getelementptr inbounds nuw ptr, ptr %40, i64 %43
  store ptr %27, ptr %44, align 8, !tbaa !46
  %45 = add i32 %41, 1
  store i32 %45, ptr %42, align 4, !tbaa !34
  br label %48

46:                                               ; preds = %39
  %47 = landingpad { ptr, i32 }
          cleanup
  br label %60

48:                                               ; preds = %_ZN6vectorIPN3mbp4termELb0EjE9push_backERKS2_.exit, %.lr.ph28
  %49 = phi ptr [ %40, %_ZN6vectorIPN3mbp4termELb0EjE9push_backERKS2_.exit ], [ %26, %.lr.ph28 ]
  %50 = getelementptr inbounds nuw i8, ptr %.01827, i64 8
  %.not19 = icmp eq ptr %50, %15
  br i1 %.not19, label %._crit_edge29, label %.lr.ph28

51:                                               ; preds = %._crit_edge29
  %52 = load ptr, ptr %2, align 8, !tbaa !45
  %.not.i.i = icmp eq ptr %52, null
  br i1 %.not.i.i, label %_ZN6vectorIPN3mbp4termELb0EjED2Ev.exit, label %53

53:                                               ; preds = %51
  %54 = getelementptr inbounds i8, ptr %52, i64 -8
  invoke void @_ZN6memory10deallocateEPv(ptr noundef nonnull %54)
          to label %_ZN6vectorIPN3mbp4termELb0EjED2Ev.exit unwind label %55

55:                                               ; preds = %53
  %56 = landingpad { ptr, i32 }
          catch ptr null
  %57 = extractvalue { ptr, i32 } %56, 0
  call void @__clang_call_terminate(ptr %57) #28
  unreachable

_ZN6vectorIPN3mbp4termELb0EjED2Ev.exit:           ; preds = %51, %53
  call void @llvm.lifetime.end.p0(i64 8, ptr nonnull %2) #27
  ret void

58:                                               ; preds = %._crit_edge29
  %59 = landingpad { ptr, i32 }
          cleanup
  br label %60

60:                                               ; preds = %58, %46
  %.pn = phi { ptr, i32 } [ %47, %46 ], [ %59, %58 ]
  call void @_ZN6vectorIPN3mbp4termELb0EjED2Ev(ptr noundef nonnull align 8 dereferenceable(8) %2) #27
  call void @llvm.lifetime.end.p0(i64 8, ptr nonnull %2) #27
  resume { ptr, i32 } %.pn
}